target datalayout = "e-m:e-p270:32:32-p271:32:32-p272:64:64-i64:64-i128:128-f80:128-n8:16:32:64-S128"
target triple = "x86_64-pc-linux-gnu"

%"class.std::error_code" = type { i32, ptr }
%"class.boost::iostreams::bzip2_error" = type <{ %"class.std::ios_base::failure", i32, [4 x i8] }>
%"class.std::ios_base::failure" = type { %"class.std::system_error" }
%"class.std::system_error" = type { %"class.std::runtime_error", %"class.std::error_code" }
%"class.std::runtime_error" = type { %"class.std::exception", %"struct.std::__cow_string" }
%"class.std::exception" = type { ptr }
%"struct.std::__cow_string" = type { %union.anon }
%union.anon = type { ptr }

@.str = private unnamed_addr constant [12 x i8] c"bzip2 error\00", align 1
@_ZTVN5boost9iostreams11bzip2_errorE = linkonce_odr unnamed_addr constant { [5 x ptr] } { [5 x ptr] [ptr null, ptr @_ZTIN5boost9iostreams11bzip2_errorE, ptr @_ZNSt8ios_base7failureB5cxx11D2Ev, ptr @_ZN5boost9iostreams11bzip2_errorD0Ev, ptr @_ZNKSt8ios_base7failureB5cxx114whatEv] }, comdat, align 8

; Function Attrs: mustprogress nounwind uwtable
define linkonce_odr hidden void @_ZNSt10error_codeC2EiRKNSt3_V214error_categoryE(ptr noundef nonnull align 8 dereferenceable(16) %0, i32 noundef %1, ptr noundef nonnull align 8 dereferenceable(8) %2) unnamed_addr #2 comdat align 2 {
  %4 = alloca ptr, align 8
  %5 = alloca i32, align 4
  %6 = alloca ptr, align 8
  store ptr %0, ptr %4, align 8, !tbaa !3
  store i32 %1, ptr %5, align 4, !tbaa !7
  store ptr %2, ptr %6, align 8, !tbaa !3
  %7 = load ptr, ptr %4, align 8
  %8 = getelementptr inbounds nuw %"class.std::error_code", ptr %7, i32 0, i32 0
  %9 = load i32, ptr %5, align 4, !tbaa !7
  store i32 %9, ptr %8, align 8, !tbaa !41
  %10 = getelementptr inbounds nuw %"class.std::error_code", ptr %7, i32 0, i32 1
  %11 = load ptr, ptr %6, align 8, !tbaa !3
  store ptr %11, ptr %10, align 8, !tbaa !42
  ret void
}

; Function Attrs: inlinehint mustprogress nounwind uwtable
define linkonce_odr { i32, ptr } @_ZSt15make_error_codeSt7io_errc(i32 noundef %0) #9 comdat {
  %2 = alloca %"class.std::error_code", align 8
  %3 = alloca i32, align 4
  store i32 %0, ptr %3, align 4, !tbaa !19
  %4 = load i32, ptr %3, align 4, !tbaa !19
  %5 = call noundef nonnull align 8 dereferenceable(8) ptr @_ZSt17iostream_categoryv() #19
  call void @_ZNSt10error_codeC2EiRKNSt3_V214error_categoryE(ptr noundef nonnull align 8 dereferenceable(16) %2, i32 noundef %4, ptr noundef nonnull align 8 dereferenceable(8) %5) #15
  %6 = load { i32, ptr }, ptr %2, align 8
  ret { i32, ptr } %6
}

; Function Attrs: mustprogress nounwind uwtable
define linkonce_odr hidden void @_ZNSt10error_codeC2ISt7io_errcvEET_(ptr noundef nonnull align 8 dereferenceable(16) %0, i32 noundef %1) unnamed_addr #2 comdat align 2 {
  %3 = alloca ptr, align 8
  %4 = alloca i32, align 4
  %5 = alloca %"class.std::error_code", align 8
  store ptr %0, ptr %3, align 8, !tbaa !3
  store i32 %1, ptr %4, align 4, !tbaa !19
  %6 = load ptr, ptr %3, align 8
  call void @llvm.lifetime.start.p0(i64 16, ptr %5) #15
  %7 = load i32, ptr %4, align 4, !tbaa !19
  %8 = call { i32, ptr } @_ZSt15make_error_codeSt7io_errc(i32 noundef %7) #15
  %9 = getelementptr inbounds nuw { i32, ptr }, ptr %5, i32 0, i32 0
  %10 = extractvalue { i32, ptr } %8, 0
  store i32 %10, ptr %9, align 8
  %11 = getelementptr inbounds nuw { i32, ptr }, ptr %5, i32 0, i32 1
  %12 = extractvalue { i32, ptr } %8, 1
  store ptr %12, ptr %11, align 8
  call void @llvm.memcpy.p0.p0.i64(ptr align 8 %6, ptr align 8 %5, i64 16, i1 false), !tbaa.struct !21
  call void @llvm.lifetime.end.p0(i64 16, ptr %5) #15
  ret void
}

; Function Attrs: mustprogress uwtable
define void @_ZN5boost9iostreams11bzip2_errorC2Ei(ptr noundef nonnull align 8 dereferenceable(36) %0, i32 noundef %1) unnamed_addr #0 align 2 {
  %3 = alloca ptr, align 8
  %4 = alloca i32, align 4
  %5 = alloca %"class.std::error_code", align 8
  store ptr %0, ptr %3, align 8, !tbaa !3
  store i32 %1, ptr %4, align 4, !tbaa !7
  %6 = load ptr, ptr %3, align 8
  call void @llvm.lifetime.start.p0(i64 16, ptr %5) #15
  call void @_ZNSt10error_codeC2ISt7io_errcvEET_(ptr noundef nonnull align 8 dereferenceable(16) %5, i32 noundef 1) #15
  call void @_ZNSt8ios_base7failureB5cxx11C2EPKcRKSt10error_code(ptr noundef nonnull align 8 dereferenceable(32) %6, ptr noundef @.str, ptr noundef nonnull align 8 dereferenceable(16) %5)
  call void @llvm.lifetime.end.p0(i64 16, ptr %5) #15
  store ptr getelementptr inbounds inrange(-16, 24) ({ [5 x ptr] }, ptr @_ZTVN5boost9iostreams11bzip2_errorE, i32 0, i32 0, i32 2), ptr %6, align 8, !tbaa !9
  %7 = getelementptr inbounds nuw %"class.boost::iostreams::bzip2_error", ptr %6, i32 0, i32 1
  %8 = load i32, ptr %4, align 4, !tbaa !7
  store i32 %8, ptr %7, align 8, !tbaa !11
  ret void
}