; Function Attrs: mustprogress uwtable
define void @_ZN5boost9iostreams11bzip2_errorC2Ei(ptr noundef nonnull align 8 dereferenceable(36) %0, i32 noundef %1) unnamed_addr #0 align 2 {
  %3 = alloca %"class.std::error_code", align 8
  call void @llvm.lifetime.start.p0(i64 16, ptr nonnull %3) #21
  %4 = tail call noundef nonnull align 8 dereferenceable(8) ptr @_ZSt17iostream_categoryv() #22
  store i32 1, ptr %3, align 8, !tbaa !3
  %.sroa.41.0..sroa_idx.i = getelementptr inbounds i8, ptr %3, i64 8
  store ptr %4, ptr %.sroa.41.0..sroa_idx.i, align 8, !tbaa !7
  call void @_ZNSt8ios_base7failureB5cxx11C2EPKcRKSt10error_code(ptr noundef nonnull align 8 dereferenceable(32) %0, ptr noundef nonnull @.str, ptr noundef nonnull align 8 dereferenceable(16) %3)
  call void @llvm.lifetime.end.p0(i64 16, ptr nonnull %3) #21
  store ptr getelementptr inbounds inrange(-16, 24) (i8, ptr @_ZTVN5boost9iostreams11bzip2_errorE, i64 16), ptr %0, align 8, !tbaa !9
  %5 = getelementptr inbounds nuw i8, ptr %0, i64 32
  store i32 %1, ptr %5, align 8, !tbaa !11
  ret void
}